; Function Attrs: mustprogress nofree norecurse nosync nounwind willreturn memory(argmem: read) uwtable
define range(i32 0, 2) i32 @tjGetErrorCode(ptr noundef readonly %0) local_unnamed_addr #7 {
  %.not.i = icmp eq ptr %0, null
  br i1 %.not.i, label %5, label %2

2:                                                ; preds = %1
  %3 = getelementptr inbounds i8, ptr %0, i64 1528
  %4 = load i32, ptr %3, align 8
  %.not4.i = icmp eq i32 %4, 0
  br i1 %.not4.i, label %5, label %tj3GetErrorCode.exit

5:                                                ; preds = %2, %1
  br label %tj3GetErrorCode.exit

tj3GetErrorCode.exit:                             ; preds = %2, %5
  %.0.i = phi i32 [ 1, %5 ], [ 0, %2 ]
  ret i32 %.0.i
}